target datalayout = "e-m:e-p270:32:32-p271:32:32-p272:64:64-i64:64-i128:128-f80:128-n8:16:32:64-S128"
target triple = "x86_64-pc-linux-gnu"

%"class.pxrInternal_v0_24__pxrReserved__::HdDataSourceLocator" = type { %"class.pxrInternal_v0_24__pxrReserved__::TfSmallVector" }
%"class.pxrInternal_v0_24__pxrReserved__::TfSmallVector" = type { %"union.pxrInternal_v0_24__pxrReserved__::TfSmallVectorBase::_DataUnion", i32, i32 }
%"union.pxrInternal_v0_24__pxrReserved__::TfSmallVectorBase::_DataUnion" = type { ptr, [40 x i8] }

@_ZZN32pxrInternal_v0_24__pxrReserved__27HdBasisCurvesTopologySchema17GetDefaultLocatorEvE7locator = internal global %"class.pxrInternal_v0_24__pxrReserved__::HdDataSourceLocator" zeroinitializer, align 8
@_ZGVZN32pxrInternal_v0_24__pxrReserved__27HdBasisCurvesTopologySchema17GetDefaultLocatorEvE7locator = internal global i64 0, align 8
@__dso_handle = external hidden global i8

; Function Attrs: mustprogress uwtable
define noundef nonnull align 8 dereferenceable(56) ptr @_ZN32pxrInternal_v0_24__pxrReserved__27HdBasisCurvesTopologySchema17GetDefaultLocatorEv() #1 align 2 personality ptr @__gxx_personality_v0 {
  %1 = alloca ptr, align 8
  %2 = alloca i32, align 4
  %3 = load atomic i8, ptr @_ZGVZN32pxrInternal_v0_24__pxrReserved__27HdBasisCurvesTopologySchema17GetDefaultLocatorEvE7locator acquire, align 8
  %4 = icmp eq i8 %3, 0
  br i1 %4, label %5, label %15, !prof !4

5:                                                ; preds = %0
  %6 = call i32 @__cxa_guard_acquire(ptr @_ZGVZN32pxrInternal_v0_24__pxrReserved__27HdBasisCurvesTopologySchema17GetDefaultLocatorEvE7locator) #3
  %7 = icmp ne i32 %6, 0
  br i1 %7, label %8, label %15

8:                                                ; preds = %5
  %9 = invoke noundef nonnull align 8 dereferenceable(56) ptr @_ZN32pxrInternal_v0_24__pxrReserved__19HdBasisCurvesSchema17GetDefaultLocatorEv()
          to label %10 unwind label %16

10:                                               ; preds = %8
  %11 = invoke noundef nonnull align 8 dereferenceable(8) ptr @_ZN32pxrInternal_v0_24__pxrReserved__27HdBasisCurvesTopologySchema14GetSchemaTokenEv()
          to label %12 unwind label %16

12:                                               ; preds = %10
  invoke void @_ZNK32pxrInternal_v0_24__pxrReserved__19HdDataSourceLocator6AppendERKNS_7TfTokenE(ptr dead_on_unwind writable sret(%"class.pxrInternal_v0_24__pxrReserved__::HdDataSourceLocator") align 8 @_ZZN32pxrInternal_v0_24__pxrReserved__27HdBasisCurvesTopologySchema17GetDefaultLocatorEvE7locator, ptr noundef nonnull align 8 dereferenceable(56) %9, ptr noundef nonnull align 8 dereferenceable(8) %11)
          to label %13 unwind label %16

13:                                               ; preds = %12
  %14 = call i32 @__cxa_atexit(ptr @_ZN32pxrInternal_v0_24__pxrReserved__19HdDataSourceLocatorD2Ev, ptr @_ZZN32pxrInternal_v0_24__pxrReserved__27HdBasisCurvesTopologySchema17GetDefaultLocatorEvE7locator, ptr @__dso_handle) #3
  call void @__cxa_guard_release(ptr @_ZGVZN32pxrInternal_v0_24__pxrReserved__27HdBasisCurvesTopologySchema17GetDefaultLocatorEvE7locator) #3
  br label %15

15:                                               ; preds = %13, %5, %0
  ret ptr @_ZZN32pxrInternal_v0_24__pxrReserved__27HdBasisCurvesTopologySchema17GetDefaultLocatorEvE7locator

16:                                               ; preds = %12, %10, %8
  %17 = landingpad { ptr, i32 }
          cleanup
  %18 = extractvalue { ptr, i32 } %17, 0
  store ptr %18, ptr %1, align 8
  %19 = extractvalue { ptr, i32 } %17, 1
  store i32 %19, ptr %2, align 4
  call void @__cxa_guard_abort(ptr @_ZGVZN32pxrInternal_v0_24__pxrReserved__27HdBasisCurvesTopologySchema17GetDefaultLocatorEvE7locator) #3
  br label %20

20:                                               ; preds = %16
  %21 = load ptr, ptr %1, align 8
  %22 = load i32, ptr %2, align 4
  %23 = insertvalue { ptr, i32 } poison, ptr %21, 0
  %24 = insertvalue { ptr, i32 } %23, i32 %22, 1
  resume { ptr, i32 } %24
}